; Function Attrs: nounwind sspstrong uwtable
define internal i64 @rb_gzfile_finish(i64 noundef %0) #0 {
  %2 = tail call ptr @rb_check_typeddata(i64 noundef %0, ptr noundef nonnull @gzfile_data_type) #18
  %3 = load i64, ptr %2, align 8, !tbaa !113
  %4 = and i64 %3, 1
  %.not.i = icmp eq i64 %4, 0
  br i1 %.not.i, label %5, label %get_gzfile.exit

5:                                                ; preds = %1
  %6 = load i64, ptr @cGzError, align 8, !tbaa !6
  tail call void (i64, ptr, ...) @rb_raise(i64 noundef %6, ptr noundef nonnull @.str.165) #19
  unreachable

get_gzfile.exit:                                  ; preds = %1
  %7 = getelementptr inbounds nuw i8, ptr %2, i64 152
  %8 = load i64, ptr %7, align 8, !tbaa !117
  %9 = getelementptr inbounds nuw i8, ptr %2, i64 216
  %10 = load ptr, ptr %9, align 8, !tbaa !131
  tail call void %10(ptr noundef nonnull %2) #18
  store i64 4, ptr %7, align 8, !tbaa !117
  %11 = getelementptr inbounds nuw i8, ptr %2, i64 176
  store i64 4, ptr %11, align 8, !tbaa !122
  %12 = getelementptr inbounds nuw i8, ptr %2, i64 184
  store i64 4, ptr %12, align 8, !tbaa !123
  ret i64 %8
}